; Function Attrs: mustprogress nounwind uwtable
define dso_local void @_ZN4llvm14CombinerHelper12applyBuildFnERNS_12MachineInstrERSt8functionIFvRNS_16MachineIRBuilderEEE(ptr nocapture noundef nonnull readonly align 8 dereferenceable(72) %0, ptr noundef nonnull align 8 dereferenceable(70) %1, ptr noundef nonnull align 8 dereferenceable(32) %2) local_unnamed_addr #0 align 2 {
  %4 = getelementptr inbounds nuw i8, ptr %2, i64 16
  %5 = load ptr, ptr %4, align 8
  %.not.i.i.i = icmp eq ptr %5, null
  br i1 %.not.i.i.i, label %6, label %_ZN4llvm14CombinerHelper19applyBuildFnNoEraseERNS_12MachineInstrERSt8functionIFvRNS_16MachineIRBuilderEEE.exit

6:                                                ; preds = %3
  tail call void @_ZSt25__throw_bad_function_callv() #29
  unreachable

_ZN4llvm14CombinerHelper19applyBuildFnNoEraseERNS_12MachineInstrERSt8functionIFvRNS_16MachineIRBuilderEEE.exit: ; preds = %3
  %7 = load ptr, ptr %0, align 8
  %8 = getelementptr inbounds nuw i8, ptr %2, i64 24
  %9 = load ptr, ptr %8, align 8
  tail call void %9(ptr noundef nonnull align 8 dereferenceable(16) %2, ptr noundef nonnull align 8 dereferenceable(88) %7) #27
  tail call void @_ZN4llvm12MachineInstr15eraseFromParentEv(ptr noundef nonnull align 8 dereferenceable(70) %1) #27
  ret void
}